; Function Attrs: nounwind uwtable
define noalias noundef ptr @Gia_ManDupTrimmedNonZero(ptr noundef readonly captures(none) %0) local_unnamed_addr #1 {
  %2 = tail call ptr @Gia_ManTransformMiter(ptr noundef %0)
  %3 = tail call ptr @Gia_ManSeqStructSweep(ptr noundef %2, i32 noundef 1, i32 noundef 1, i32 noundef 0) #29
  tail call void @Gia_ManStop(ptr noundef %2) #29
  %4 = tail call noalias dereferenceable_or_null(16) ptr @malloc(i64 noundef 16) #27
  %5 = getelementptr inbounds nuw i8, ptr %4, i64 4
  store i32 0, ptr %5, align 4
  store i32 100, ptr %4, align 8
  %6 = tail call noalias dereferenceable_or_null(400) ptr @malloc(i64 noundef 400) #27
  %7 = getelementptr inbounds nuw i8, ptr %4, i64 8
  store ptr %6, ptr %7, align 8
  %8 = getelementptr i8, ptr %3, i64 32
  %9 = getelementptr i8, ptr %3, i64 16
  %10 = getelementptr i8, ptr %3, i64 72
  %.val1518 = load i32, ptr %9, align 8
  %.val1619 = load ptr, ptr %10, align 8
  %11 = getelementptr i8, ptr %.val1619, i64 4
  %.val16.val20 = load i32, ptr %11, align 4
  %12 = icmp sgt i32 %.val16.val20, %.val1518
  br i1 %12, label %.lr.ph, label %.critedge

.lr.ph:                                           ; preds = %1, %53
  %.val1627 = phi ptr [ %.val16, %53 ], [ %.val1619, %1 ]
  %.val1525 = phi i32 [ %.val15, %53 ], [ %.val1518, %1 ]
  %indvars.iv = phi i64 [ %indvars.iv.next, %53 ], [ 0, %1 ]
  %.val = load ptr, ptr %8, align 8
  %.not = icmp eq ptr %.val, null
  br i1 %.not, label %.critedge, label %13

13:                                               ; preds = %.lr.ph
  %14 = getelementptr i8, ptr %.val1627, i64 8
  %.val14.val = load ptr, ptr %14, align 8
  %15 = getelementptr inbounds nuw i32, ptr %.val14.val, i64 %indvars.iv
  %16 = load i32, ptr %15, align 4
  %17 = sext i32 %16 to i64
  %18 = getelementptr inbounds %struct.Gia_Obj_t_, ptr %.val, i64 %17
  %19 = load i64, ptr %18, align 4
  %20 = and i64 %19, 536870911
  %21 = sub nsw i64 0, %20
  %22 = getelementptr inbounds %struct.Gia_Obj_t_, ptr %18, i64 %21
  %.val17 = load i64, ptr %22, align 4
  %23 = and i64 %.val17, 2305843005455597567
  %narrow.i.not = icmp eq i64 %23, 2305843005455597567
  br i1 %narrow.i.not, label %53, label %24

24:                                               ; preds = %13
  %25 = load i32, ptr %5, align 4
  %26 = load i32, ptr %4, align 8
  %27 = icmp eq i32 %25, %26
  br i1 %27, label %28, label %.Vec_IntGrow.exit10_crit_edge.i

.Vec_IntGrow.exit10_crit_edge.i:                  ; preds = %24
  %.pre.i = load ptr, ptr %7, align 8
  br label %Vec_IntPush.exit

28:                                               ; preds = %24
  %29 = icmp slt i32 %25, 16
  br i1 %29, label %30, label %37

30:                                               ; preds = %28
  %31 = load ptr, ptr %7, align 8
  %.not9.i.i = icmp eq ptr %31, null
  br i1 %.not9.i.i, label %34, label %32

32:                                               ; preds = %30
  %33 = tail call dereferenceable_or_null(64) ptr @realloc(ptr noundef nonnull %31, i64 noundef 64) #28
  br label %Vec_IntGrow.exit.i

34:                                               ; preds = %30
  %35 = tail call noalias dereferenceable_or_null(64) ptr @malloc(i64 noundef 64) #27
  br label %Vec_IntGrow.exit.i

Vec_IntGrow.exit.i:                               ; preds = %34, %32
  %36 = phi ptr [ %33, %32 ], [ %35, %34 ]
  store ptr %36, ptr %7, align 8
  store i32 16, ptr %4, align 8
  br label %Vec_IntPush.exit

37:                                               ; preds = %28
  %38 = shl nuw nsw i32 %25, 1
  %39 = load ptr, ptr %7, align 8
  %.not9.i9.i = icmp eq ptr %39, null
  %40 = zext nneg i32 %38 to i64
  %41 = shl nuw nsw i64 %40, 2
  br i1 %.not9.i9.i, label %44, label %42

42:                                               ; preds = %37
  %43 = tail call ptr @realloc(ptr noundef nonnull %39, i64 noundef %41) #28
  br label %46

44:                                               ; preds = %37
  %45 = tail call noalias ptr @malloc(i64 noundef %41) #27
  br label %46

46:                                               ; preds = %44, %42
  %47 = phi ptr [ %43, %42 ], [ %45, %44 ]
  store ptr %47, ptr %7, align 8
  store i32 %38, ptr %4, align 8
  br label %Vec_IntPush.exit

Vec_IntPush.exit:                                 ; preds = %.Vec_IntGrow.exit10_crit_edge.i, %Vec_IntGrow.exit.i, %46
  %48 = phi ptr [ %.pre.i, %.Vec_IntGrow.exit10_crit_edge.i ], [ %47, %46 ], [ %36, %Vec_IntGrow.exit.i ]
  %49 = add nsw i32 %25, 1
  store i32 %49, ptr %5, align 4
  %50 = sext i32 %25 to i64
  %51 = getelementptr inbounds i32, ptr %48, i64 %50
  %52 = trunc nuw nsw i64 %indvars.iv to i32
  store i32 %52, ptr %51, align 4
  %.val15.pre = load i32, ptr %9, align 8
  %.val16.pre = load ptr, ptr %10, align 8
  br label %53

53:                                               ; preds = %13, %Vec_IntPush.exit
  %.val16 = phi ptr [ %.val1627, %13 ], [ %.val16.pre, %Vec_IntPush.exit ]
  %.val15 = phi i32 [ %.val1525, %13 ], [ %.val15.pre, %Vec_IntPush.exit ]
  %indvars.iv.next = add nuw nsw i64 %indvars.iv, 1
  %54 = getelementptr i8, ptr %.val16, i64 4
  %.val16.val = load i32, ptr %54, align 4
  %55 = sub nsw i32 %.val16.val, %.val15
  %56 = sext i32 %55 to i64
  %57 = icmp slt i64 %indvars.iv.next, %56
  br i1 %57, label %.lr.ph, label %.critedge, !llvm.loop !194

.critedge:                                        ; preds = %.lr.ph, %53, %1
  tail call void @Gia_ManStop(ptr noundef nonnull %3) #29
  ret ptr %4
}